target datalayout = "e-m:e-p270:32:32-p271:32:32-p272:64:64-i64:64-i128:128-f80:128-n8:16:32:64-S128"
target triple = "x86_64-pc-linux-gnu"

; Function Attrs: nounwind uwtable
define void @DES_set_odd_parity(ptr noundef %0) #0 {
  %2 = alloca ptr, align 8
  %3 = alloca i32, align 4
  store ptr %0, ptr %2, align 8, !tbaa !3
  call void @llvm.lifetime.start.p0(i64 4, ptr %3) #4
  store i32 0, ptr %3, align 4, !tbaa !8
  br label %4

4:                                                ; preds = %21, %1
  %5 = load i32, ptr %3, align 4, !tbaa !8
  %6 = zext i32 %5 to i64
  %7 = icmp ult i64 %6, 8
  br i1 %7, label %8, label %24

8:                                                ; preds = %4
  %9 = load ptr, ptr %2, align 8, !tbaa !3
  %10 = load i32, ptr %3, align 4, !tbaa !8
  %11 = zext i32 %10 to i64
  %12 = getelementptr inbounds nuw [8 x i8], ptr %9, i64 0, i64 %11
  %13 = load i8, ptr %12, align 1, !tbaa !10
  %14 = zext i8 %13 to i64
  %15 = getelementptr inbounds nuw [256 x i8], ptr @odd_parity, i64 0, i64 %14
  %16 = load i8, ptr %15, align 1, !tbaa !10
  %17 = load ptr, ptr %2, align 8, !tbaa !3
  %18 = load i32, ptr %3, align 4, !tbaa !8
  %19 = zext i32 %18 to i64
  %20 = getelementptr inbounds nuw [8 x i8], ptr %17, i64 0, i64 %19
  store i8 %16, ptr %20, align 1, !tbaa !10
  br label %21

21:                                               ; preds = %8
  %22 = load i32, ptr %3, align 4, !tbaa !8
  %23 = add i32 %22, 1
  store i32 %23, ptr %3, align 4, !tbaa !8
  br label %4, !llvm.loop !11

24:                                               ; preds = %4
  call void @llvm.lifetime.end.p0(i64 4, ptr %3) #4
  ret void
}